target datalayout = "e-m:e-p270:32:32-p271:32:32-p272:64:64-i64:64-i128:128-f80:128-n8:16:32:64-S128"
target triple = "x86_64-pc-linux-gnu"

@stderr = external global ptr, align 8
@stdout = external global ptr, align 8
@.str.90 = private unnamed_addr constant [14 x i8] c"PYTHONMALLOC=\00", align 1
@.str.91 = private unnamed_addr constant [26 x i8] c"Checking Py_DecodeLocale\0A\00", align 1
@.str.92 = private unnamed_addr constant [7 x i8] c"./spam\00", align 1
@.str.93 = private unnamed_addr constant [41 x i8] c"Fatal error: cannot decode program name\0A\00", align 1
@.str.94 = private unnamed_addr constant [28 x i8] c"Checking Py_SetProgramName\0A\00", align 1
@.str.95 = private unnamed_addr constant [47 x i8] c"Checking !Py_IsInitialized pre-initialization\0A\00", align 1
@.str.96 = private unnamed_addr constant [49 x i8] c"Fatal error: initialized before initialization!\0A\00", align 1
@.str.97 = private unnamed_addr constant [26 x i8] c"Initializing interpreter\0A\00", align 1
@.str.98 = private unnamed_addr constant [47 x i8] c"Checking Py_IsInitialized post-initialization\0A\00", align 1
@.str.99 = private unnamed_addr constant [52 x i8] c"Fatal error: not initialized after initialization!\0A\00", align 1
@.str.100 = private unnamed_addr constant [27 x i8] c"Check sys module contents\0A\00", align 1
@.str.101 = private unnamed_addr constant [75 x i8] c"import sys; print('sys.executable:', sys.executable); sys.stdout.flush(); \00", align 1
@.str.102 = private unnamed_addr constant [24 x i8] c"Finalizing interpreter\0A\00", align 1
@.str.103 = private unnamed_addr constant [46 x i8] c"Checking !Py_IsInitialized post-finalization\0A\00", align 1
@.str.104 = private unnamed_addr constant [52 x i8] c"Fatal error: still initialized after finalization!\0A\00", align 1
@.str.105 = private unnamed_addr constant [45 x i8] c"Freeing memory allocated by Py_DecodeLocale\0A\00", align 1

; Function Attrs: nounwind uwtable
define internal i32 @test_pre_initialization_api() #0 {
  %1 = alloca i32, align 4
  %2 = alloca ptr, align 8
  %3 = alloca i32, align 4
  %4 = call i32 @putenv(ptr noundef @.str.90) #11
  br label %5

5:                                                ; preds = %0
  %6 = call i32 (ptr, ...) @printf(ptr noundef @.str.91)
  %7 = load ptr, ptr @stdout, align 8, !tbaa !21
  %8 = call i32 @fflush(ptr noundef %7)
  br label %9

9:                                                ; preds = %5
  call void @llvm.lifetime.start.p0(i64 8, ptr %2) #11
  %10 = call ptr @Py_DecodeLocale(ptr noundef @.str.92, ptr noundef null)
  store ptr %10, ptr %2, align 8, !tbaa !36
  %11 = load ptr, ptr %2, align 8, !tbaa !36
  %12 = icmp eq ptr %11, null
  br i1 %12, label %13, label %16

13:                                               ; preds = %9
  %14 = load ptr, ptr @stderr, align 8, !tbaa !21
  %15 = call i32 (ptr, ptr, ...) @fprintf(ptr noundef %14, ptr noundef @.str.93) #11
  store i32 1, ptr %1, align 4
  store i32 1, ptr %3, align 4
  br label %86

16:                                               ; preds = %9
  br label %17

17:                                               ; preds = %16
  %18 = call i32 (ptr, ...) @printf(ptr noundef @.str.94)
  %19 = load ptr, ptr @stdout, align 8, !tbaa !21
  %20 = call i32 @fflush(ptr noundef %19)
  br label %21

21:                                               ; preds = %17
  br label %22

22:                                               ; preds = %21
  %23 = load ptr, ptr %2, align 8, !tbaa !36
  call void @Py_SetProgramName(ptr noundef %23)
  br label %24

24:                                               ; preds = %22
  %25 = call i32 (ptr, ...) @printf(ptr noundef @.str.95)
  %26 = load ptr, ptr @stdout, align 8, !tbaa !21
  %27 = call i32 @fflush(ptr noundef %26)
  br label %28

28:                                               ; preds = %24
  br label %29

29:                                               ; preds = %28
  %30 = call i32 @Py_IsInitialized()
  %31 = icmp ne i32 %30, 0
  br i1 %31, label %32, label %35

32:                                               ; preds = %29
  %33 = load ptr, ptr @stderr, align 8, !tbaa !21
  %34 = call i32 (ptr, ptr, ...) @fprintf(ptr noundef %33, ptr noundef @.str.96) #11
  store i32 1, ptr %1, align 4
  store i32 1, ptr %3, align 4
  br label %86

35:                                               ; preds = %29
  br label %36

36:                                               ; preds = %35
  %37 = call i32 (ptr, ...) @printf(ptr noundef @.str.97)
  %38 = load ptr, ptr @stdout, align 8, !tbaa !21
  %39 = call i32 @fflush(ptr noundef %38)
  br label %40

40:                                               ; preds = %36
  br label %41

41:                                               ; preds = %40
  call void @Py_Initialize()
  br label %42

42:                                               ; preds = %41
  %43 = call i32 (ptr, ...) @printf(ptr noundef @.str.98)
  %44 = load ptr, ptr @stdout, align 8, !tbaa !21
  %45 = call i32 @fflush(ptr noundef %44)
  br label %46

46:                                               ; preds = %42
  br label %47

47:                                               ; preds = %46
  %48 = call i32 @Py_IsInitialized()
  %49 = icmp ne i32 %48, 0
  br i1 %49, label %53, label %50

50:                                               ; preds = %47
  %51 = load ptr, ptr @stderr, align 8, !tbaa !21
  %52 = call i32 (ptr, ptr, ...) @fprintf(ptr noundef %51, ptr noundef @.str.99) #11
  store i32 1, ptr %1, align 4
  store i32 1, ptr %3, align 4
  br label %86

53:                                               ; preds = %47
  br label %54

54:                                               ; preds = %53
  %55 = call i32 (ptr, ...) @printf(ptr noundef @.str.100)
  %56 = load ptr, ptr @stdout, align 8, !tbaa !21
  %57 = call i32 @fflush(ptr noundef %56)
  br label %58

58:                                               ; preds = %54
  br label %59

59:                                               ; preds = %58
  %60 = call i32 @PyRun_SimpleStringFlags(ptr noundef @.str.101, ptr noundef null)
  br label %61

61:                                               ; preds = %59
  %62 = call i32 (ptr, ...) @printf(ptr noundef @.str.102)
  %63 = load ptr, ptr @stdout, align 8, !tbaa !21
  %64 = call i32 @fflush(ptr noundef %63)
  br label %65

65:                                               ; preds = %61
  br label %66

66:                                               ; preds = %65
  call void @Py_Finalize()
  br label %67

67:                                               ; preds = %66
  %68 = call i32 (ptr, ...) @printf(ptr noundef @.str.103)
  %69 = load ptr, ptr @stdout, align 8, !tbaa !21
  %70 = call i32 @fflush(ptr noundef %69)
  br label %71

71:                                               ; preds = %67
  br label %72

72:                                               ; preds = %71
  %73 = call i32 @Py_IsInitialized()
  %74 = icmp ne i32 %73, 0
  br i1 %74, label %75, label %78

75:                                               ; preds = %72
  %76 = load ptr, ptr @stderr, align 8, !tbaa !21
  %77 = call i32 (ptr, ptr, ...) @fprintf(ptr noundef %76, ptr noundef @.str.104) #11
  store i32 1, ptr %1, align 4
  store i32 1, ptr %3, align 4
  br label %86

78:                                               ; preds = %72
  br label %79

79:                                               ; preds = %78
  %80 = call i32 (ptr, ...) @printf(ptr noundef @.str.105)
  %81 = load ptr, ptr @stdout, align 8, !tbaa !21
  %82 = call i32 @fflush(ptr noundef %81)
  br label %83

83:                                               ; preds = %79
  br label %84

84:                                               ; preds = %83
  %85 = load ptr, ptr %2, align 8, !tbaa !36
  call void @PyMem_RawFree(ptr noundef %85)
  store i32 0, ptr %1, align 4
  store i32 1, ptr %3, align 4
  br label %86

86:                                               ; preds = %84, %75, %50, %32, %13
  call void @llvm.lifetime.end.p0(i64 8, ptr %2) #11
  %87 = load i32, ptr %1, align 4
  ret i32 %87
}