; Function Attrs: nounwind uwtable
define internal range(i32 0, 2) i32 @test_pre_initialization_api() #0 {
  %1 = tail call i32 @putenv(ptr noundef nonnull @.str.90) #20
  %puts = tail call i32 @puts(ptr nonnull dereferenceable(1) @str.5)
  %2 = load ptr, ptr @stdout, align 8, !tbaa !16
  %3 = tail call i32 @fflush(ptr noundef %2)
  %4 = tail call ptr @Py_DecodeLocale(ptr noundef nonnull @.str.92, ptr noundef null) #20
  %5 = icmp eq ptr %4, null
  br i1 %5, label %6, label %9

6:                                                ; preds = %0
  %7 = load ptr, ptr @stderr, align 8, !tbaa !16
  %8 = tail call i64 @fwrite(ptr nonnull @.str.93, i64 40, i64 1, ptr %7) #23
  br label %42

9:                                                ; preds = %0
  %puts4 = tail call i32 @puts(ptr nonnull dereferenceable(1) @str.6)
  %10 = load ptr, ptr @stdout, align 8, !tbaa !16
  %11 = tail call i32 @fflush(ptr noundef %10)
  tail call void @Py_SetProgramName(ptr noundef nonnull %4) #20
  %puts5 = tail call i32 @puts(ptr nonnull dereferenceable(1) @str.7)
  %12 = load ptr, ptr @stdout, align 8, !tbaa !16
  %13 = tail call i32 @fflush(ptr noundef %12)
  %14 = tail call i32 @Py_IsInitialized() #20
  %.not = icmp eq i32 %14, 0
  br i1 %.not, label %18, label %15

15:                                               ; preds = %9
  %16 = load ptr, ptr @stderr, align 8, !tbaa !16
  %17 = tail call i64 @fwrite(ptr nonnull @.str.96, i64 48, i64 1, ptr %16) #23
  br label %42

18:                                               ; preds = %9
  %puts6 = tail call i32 @puts(ptr nonnull dereferenceable(1) @str.18)
  %19 = load ptr, ptr @stdout, align 8, !tbaa !16
  %20 = tail call i32 @fflush(ptr noundef %19)
  tail call void @Py_Initialize() #20
  %puts7 = tail call i32 @puts(ptr nonnull dereferenceable(1) @str.9)
  %21 = load ptr, ptr @stdout, align 8, !tbaa !16
  %22 = tail call i32 @fflush(ptr noundef %21)
  %23 = tail call i32 @Py_IsInitialized() #20
  %.not8 = icmp eq i32 %23, 0
  br i1 %.not8, label %24, label %27

24:                                               ; preds = %18
  %25 = load ptr, ptr @stderr, align 8, !tbaa !16
  %26 = tail call i64 @fwrite(ptr nonnull @.str.99, i64 51, i64 1, ptr %25) #23
  br label %42

27:                                               ; preds = %18
  %puts9 = tail call i32 @puts(ptr nonnull dereferenceable(1) @str.19)
  %28 = load ptr, ptr @stdout, align 8, !tbaa !16
  %29 = tail call i32 @fflush(ptr noundef %28)
  %30 = tail call i32 @PyRun_SimpleStringFlags(ptr noundef nonnull @.str.101, ptr noundef null) #20
  %puts10 = tail call i32 @puts(ptr nonnull dereferenceable(1) @str.20)
  %31 = load ptr, ptr @stdout, align 8, !tbaa !16
  %32 = tail call i32 @fflush(ptr noundef %31)
  tail call void @Py_Finalize() #20
  %puts11 = tail call i32 @puts(ptr nonnull dereferenceable(1) @str.12)
  %33 = load ptr, ptr @stdout, align 8, !tbaa !16
  %34 = tail call i32 @fflush(ptr noundef %33)
  %35 = tail call i32 @Py_IsInitialized() #20
  %.not12 = icmp eq i32 %35, 0
  br i1 %.not12, label %39, label %36

36:                                               ; preds = %27
  %37 = load ptr, ptr @stderr, align 8, !tbaa !16
  %38 = tail call i64 @fwrite(ptr nonnull @.str.104, i64 51, i64 1, ptr %37) #23
  br label %42

39:                                               ; preds = %27
  %puts13 = tail call i32 @puts(ptr nonnull dereferenceable(1) @str.13)
  %40 = load ptr, ptr @stdout, align 8, !tbaa !16
  %41 = tail call i32 @fflush(ptr noundef %40)
  tail call void @PyMem_RawFree(ptr noundef nonnull %4) #20
  br label %42

42:                                               ; preds = %39, %36, %24, %15, %6
  %.0 = phi i32 [ 1, %6 ], [ 1, %15 ], [ 1, %36 ], [ 0, %39 ], [ 1, %24 ]
  ret i32 %.0
}